target datalayout = "e-m:e-p270:32:32-p271:32:32-p272:64:64-i64:64-i128:128-f80:128-n8:16:32:64-S128"
target triple = "x86_64-pc-linux-gnu"

%class.Vmycpu_top___024root = type { %class.VerilatedModule, %struct.anon, %struct.anon.0, %struct.anon.1, %struct.anon.2, %struct.anon.3, %struct.anon.4, %struct.anon.8, [8 x i8], %class.VlTriggerVec, %class.VlTriggerVec.20, %class.VlTriggerVec, %class.VlTriggerVec, ptr, [56 x i8] }
%class.VerilatedModule = type { ptr }
%struct.anon = type { i8, i8, i8, i8, i8, i8, i8, i8, i8, i8, i8, i8, i8, i8, i8, i8, i8, i8, i8, i8, i8, i8, i8, i8, i8, i8, i8, i8, i8, i8, i8, i8, i8, i8, i8, i8, i8, i8, i8, i8, i8, i8, i8, i8, i8, i8, i8, i8, i8, i8, i8, i8, i8, i8, i8, i8, i8, i8, i8, i8, i8, i8, i8, i8 }
%struct.anon.0 = type { i8, i8, i8, i8, i8, i8, i8, i8, i8, i8, i8, i8, i8, i8, i8, i8, i8, i8, i8, i8, i8, i8, i8, i8, i8, i8, i8, i8, i8, i8, i8, i8, i8, i8, i8, i8, i8, i8, i8, i8, i8, i8, i8, i8, i8, i8, i8, i8, i8, i8, i8, i8, i8, i8, i8, i8, i8, i8, i8, i8, i8, i8, i8, i8 }
%struct.anon.1 = type { i8, i8, i8, i8, i8, i8, i8, i8, i8, i8, i8, i8, i8, i8, i8, i8, i8, i8, i8, i8, i8, i8, i8, i8, i8, i8, i8, i8, i8, i8, i8, i8, i8, i8, i8, i8, i8, i8, i8, i8, i8, i8, i8, i8, i8, i8, i8, i8, i8, i8, i8, i8, i8, i8, i8, i8, i8, i8, i8, i8, i8, i8, i8, i8 }
%struct.anon.2 = type { i8, i8, i8, i8, i8, i8, i8, i8, i8, i8, i8, i8, i8, i8, i8, i8, i8, i8, i8, i8, i8, i8, i8, i8, i8, i16, i16, i16, i16, i16, i16, i16, i16, i16, i16, i16, i32, i32, i32, i32, i32, i32, i32, i32, i32, i32, i32, i32, i32, i32, i32, i32, i32, i32, i32, i32, i32, i32, i32, i32, i32, i32, i32, i32 }
%struct.anon.3 = type { i32, i32, i32, i32, i32, i32, i32, i32, i32, i32, i32, i32, i32, i32, i32, i32, i32, i32, i32, i32, i32, i32, i32, i32, i32, i32, i32, i32, i32, i32, i32, i32, i32, i32, i32, i32, i32, i32, i32, i32, i32, i32, i32, i32, i32, i32, i32, i32, i32, i32, i32, i32, i32, i32, i32, i32, i32, i32, i32, i32, i32, i32, i32, i32 }
%struct.anon.4 = type { %struct.VlWide, i32, i32, i32, i32, i32, i32, i32, i32, i32, i32, i32, i32, i32, i32, i32, i32, i32, i32, i32, i32, i32, i32, i32, i32, i32, i32, i32, i32, i32, i32, i32, i32, i32, i32, i32, i32, i32, i32, i32, i32, i32, %struct.VlWide, %struct.VlWide, %struct.VlWide, %struct.VlWide, %struct.VlWide, %struct.VlWide, i64, i64, i64, i64, i64, i64, i64, i64, i64, i64, i64, i64, %struct.VlUnpacked, %struct.VlUnpacked.5, %struct.VlUnpacked.6, %struct.VlUnpacked.7 }
%struct.VlWide = type { [3 x i32] }
%struct.VlUnpacked = type { [16 x %struct.VlWide] }
%struct.VlUnpacked.5 = type { [32 x i32] }
%struct.VlUnpacked.6 = type { [16 x i8] }
%struct.VlUnpacked.7 = type { [64 x i8] }
%struct.anon.8 = type { %struct.VlUnpacked.9, %struct.VlUnpacked.10, %struct.VlUnpacked.11, %struct.VlUnpacked.10, %struct.VlUnpacked.7, %struct.VlUnpacked.12, %struct.VlUnpacked.13, %struct.VlUnpacked.13, %struct.VlUnpacked.14, %struct.VlUnpacked.15, %struct.VlUnpacked.14, %struct.VlUnpacked.15, %struct.VlUnpacked.7, %struct.VlUnpacked.16, %struct.VlUnpacked.17, %struct.VlUnpacked.13, %struct.VlUnpacked.13, %struct.VlUnpacked.13, %struct.VlUnpacked.18, %struct.VlUnpacked.18, %struct.VlUnpacked.18, %struct.VlUnpacked.18, %struct.VlUnpacked.19, %struct.VlUnpacked.15, %struct.VlUnpacked.19, %struct.VlUnpacked.15 }
%struct.VlUnpacked.9 = type { [8 x %struct.VlWide] }
%struct.VlUnpacked.11 = type { [3 x i32] }
%struct.VlUnpacked.10 = type { [3 x i8] }
%struct.VlUnpacked.12 = type { [2 x i64] }
%struct.VlUnpacked.14 = type { [512 x i64] }
%struct.VlUnpacked.16 = type { [4 x %struct.VlWide] }
%struct.VlUnpacked.17 = type { [16 x i32] }
%struct.VlUnpacked.13 = type { [2 x i8] }
%struct.VlUnpacked.18 = type { [2 x i32] }
%struct.VlUnpacked.19 = type { [1024 x i32] }
%struct.VlUnpacked.15 = type { [64 x i32] }
%class.VlTriggerVec.20 = type { %"struct.std::array", [8 x i8] }
%"struct.std::array" = type { [1 x i64] }
%class.VlTriggerVec = type { %"struct.std::array", [8 x i8] }

; Function Attrs: mustprogress nounwind uwtable
define internal noundef i64 @_ZL15VL_EXTENDSIGN_Qim(i32 noundef %0, i64 noundef %1) #1 {
  %3 = alloca i32, align 4
  %4 = alloca i64, align 8
  store i32 %0, ptr %3, align 4
  store i64 %1, ptr %4, align 8
  %5 = load i64, ptr %4, align 8
  %6 = load i32, ptr %3, align 4
  %7 = sub nsw i32 %6, 1
  %8 = zext i32 %7 to i64
  %9 = shl i64 1, %8
  %10 = and i64 %5, %9
  %11 = sub i64 0, %10
  ret i64 %11
}

; Function Attrs: mustprogress uwtable
define internal noundef i64 @_ZL13VL_EXTENDS_QQiim(i32 noundef %0, i32 noundef %1, i64 noundef %2) #2 {
  %4 = alloca i32, align 4
  %5 = alloca i32, align 4
  %6 = alloca i64, align 8
  store i32 %0, ptr %4, align 4
  store i32 %1, ptr %5, align 4
  store i64 %2, ptr %6, align 8
  %7 = load i32, ptr %5, align 4
  %8 = load i64, ptr %6, align 8
  %9 = call noundef i64 @_ZL15VL_EXTENDSIGN_Qim(i32 noundef %7, i64 noundef %8)
  %10 = load i64, ptr %6, align 8
  %11 = or i64 %9, %10
  ret i64 %11
}

; Function Attrs: mustprogress nounwind uwtable
define linkonce_odr dso_local noundef nonnull align 4 dereferenceable(4) ptr @_ZN10VlUnpackedIjLm1024EEixEm(ptr noundef nonnull align 4 dereferenceable(4096) %0, i64 noundef %1) #1 comdat align 2 {
  %3 = alloca ptr, align 8
  %4 = alloca i64, align 8
  store ptr %0, ptr %3, align 8
  store i64 %1, ptr %4, align 8
  %5 = load ptr, ptr %3, align 8
  %6 = getelementptr inbounds %struct.VlUnpacked.19, ptr %5, i32 0, i32 0
  %7 = load i64, ptr %4, align 8
  %8 = getelementptr inbounds [1024 x i32], ptr %6, i64 0, i64 %7
  ret ptr %8
}

; Function Attrs: mustprogress nounwind uwtable
define linkonce_odr dso_local noundef nonnull align 4 dereferenceable(4) ptr @_ZN10VlUnpackedIjLm64EEixEm(ptr noundef nonnull align 4 dereferenceable(256) %0, i64 noundef %1) #1 comdat align 2 {
  %3 = alloca ptr, align 8
  %4 = alloca i64, align 8
  store ptr %0, ptr %3, align 8
  store i64 %1, ptr %4, align 8
  %5 = load ptr, ptr %3, align 8
  %6 = getelementptr inbounds %struct.VlUnpacked.15, ptr %5, i32 0, i32 0
  %7 = load i64, ptr %4, align 8
  %8 = getelementptr inbounds [64 x i32], ptr %6, i64 0, i64 %7
  ret ptr %8
}

; Function Attrs: mustprogress nounwind uwtable
define linkonce_odr dso_local noundef nonnull align 8 dereferenceable(8) ptr @_ZN10VlUnpackedImLm512EEixEm(ptr noundef nonnull align 8 dereferenceable(4096) %0, i64 noundef %1) #1 comdat align 2 {
  %3 = alloca ptr, align 8
  %4 = alloca i64, align 8
  store ptr %0, ptr %3, align 8
  store i64 %1, ptr %4, align 8
  %5 = load ptr, ptr %3, align 8
  %6 = getelementptr inbounds %struct.VlUnpacked.14, ptr %5, i32 0, i32 0
  %7 = load i64, ptr %4, align 8
  %8 = getelementptr inbounds [512 x i64], ptr %6, i64 0, i64 %7
  ret ptr %8
}

; Function Attrs: mustprogress uwtable
define internal noundef i32 @_ZL10VL_GTS_IIIijj(i32 noundef %0, i32 noundef %1, i32 noundef %2) #2 {
  %4 = alloca i32, align 4
  %5 = alloca i32, align 4
  %6 = alloca i32, align 4
  %7 = alloca i64, align 8
  %8 = alloca i64, align 8
  store i32 %0, ptr %4, align 4
  store i32 %1, ptr %5, align 4
  store i32 %2, ptr %6, align 4
  %9 = load i32, ptr %4, align 4
  %10 = load i32, ptr %5, align 4
  %11 = zext i32 %10 to i64
  %12 = call noundef i64 @_ZL13VL_EXTENDS_QQiim(i32 noundef 64, i32 noundef %9, i64 noundef %11)
  store i64 %12, ptr %7, align 8
  %13 = load i32, ptr %4, align 4
  %14 = load i32, ptr %6, align 4
  %15 = zext i32 %14 to i64
  %16 = call noundef i64 @_ZL13VL_EXTENDS_QQiim(i32 noundef 64, i32 noundef %13, i64 noundef %15)
  store i64 %16, ptr %8, align 8
  %17 = load i64, ptr %7, align 8
  %18 = load i64, ptr %8, align 8
  %19 = icmp sgt i64 %17, %18
  %20 = zext i1 %19 to i32
  ret i32 %20
}

; Function Attrs: cold mustprogress uwtable
define dso_local void @_Z40Vmycpu_top___024root___eval_initial__TOPP20Vmycpu_top___024root(ptr noundef %0) #0 {
  %2 = alloca ptr, align 8
  %3 = alloca ptr, align 8
  %4 = alloca i32, align 4
  %5 = alloca i32, align 4
  %6 = alloca i32, align 4
  %7 = alloca i32, align 4
  %8 = alloca i32, align 4
  %9 = alloca i32, align 4
  %10 = alloca i32, align 4
  %11 = alloca i32, align 4
  store ptr %0, ptr %2, align 8
  %12 = load ptr, ptr %2, align 8
  %13 = getelementptr inbounds %class.Vmycpu_top___024root, ptr %12, i32 0, i32 13
  %14 = load ptr, ptr %13, align 64
  store ptr %14, ptr %3, align 8
  br label %15

15:                                               ; preds = %1
  br label %16

16:                                               ; preds = %15
  store i32 0, ptr %4, align 4
  store i32 0, ptr %5, align 4
  store i32 0, ptr %6, align 4
  store i32 0, ptr %7, align 4
  %17 = load ptr, ptr %2, align 8
  %18 = getelementptr inbounds %class.Vmycpu_top___024root, ptr %17, i32 0, i32 1
  %19 = getelementptr inbounds %struct.anon, ptr %18, i32 0, i32 34
  store i8 1, ptr %19, align 2
  store i32 0, ptr %4, align 4
  br label %20

20:                                               ; preds = %24, %16
  %21 = load i32, ptr %4, align 4
  %22 = call noundef i32 @_ZL10VL_GTS_IIIijj(i32 noundef 32, i32 noundef 512, i32 noundef %21)
  %23 = icmp ne i32 %22, 0
  br i1 %23, label %24, label %34

24:                                               ; preds = %20
  %25 = load ptr, ptr %2, align 8
  %26 = getelementptr inbounds %class.Vmycpu_top___024root, ptr %25, i32 0, i32 7
  %27 = getelementptr inbounds %struct.anon.8, ptr %26, i32 0, i32 8
  %28 = load i32, ptr %4, align 4
  %29 = and i32 511, %28
  %30 = zext i32 %29 to i64
  %31 = call noundef nonnull align 8 dereferenceable(8) ptr @_ZN10VlUnpackedImLm512EEixEm(ptr noundef nonnull align 8 dereferenceable(4096) %27, i64 noundef %30)
  store i64 0, ptr %31, align 8
  %32 = load i32, ptr %4, align 4
  %33 = add i32 1, %32
  store i32 %33, ptr %4, align 4
  br label %20, !llvm.loop !5

34:                                               ; preds = %20
  store i32 0, ptr %8, align 4
  br label %35

35:                                               ; preds = %38, %34
  %36 = load i32, ptr %8, align 4
  %37 = icmp ule i32 %36, 63
  br i1 %37, label %38, label %47

38:                                               ; preds = %35
  %39 = load ptr, ptr %2, align 8
  %40 = getelementptr inbounds %class.Vmycpu_top___024root, ptr %39, i32 0, i32 7
  %41 = getelementptr inbounds %struct.anon.8, ptr %40, i32 0, i32 9
  %42 = load i32, ptr %8, align 4
  %43 = zext i32 %42 to i64
  %44 = call noundef nonnull align 4 dereferenceable(4) ptr @_ZN10VlUnpackedIjLm64EEixEm(ptr noundef nonnull align 4 dereferenceable(256) %41, i64 noundef %43)
  store i32 0, ptr %44, align 4
  %45 = load i32, ptr %8, align 4
  %46 = add i32 1, %45
  store i32 %46, ptr %8, align 4
  br label %35, !llvm.loop !7

47:                                               ; preds = %35
  store i32 0, ptr %5, align 4
  br label %48

48:                                               ; preds = %52, %47
  %49 = load i32, ptr %5, align 4
  %50 = call noundef i32 @_ZL10VL_GTS_IIIijj(i32 noundef 32, i32 noundef 512, i32 noundef %49)
  %51 = icmp ne i32 %50, 0
  br i1 %51, label %52, label %62

52:                                               ; preds = %48
  %53 = load ptr, ptr %2, align 8
  %54 = getelementptr inbounds %class.Vmycpu_top___024root, ptr %53, i32 0, i32 7
  %55 = getelementptr inbounds %struct.anon.8, ptr %54, i32 0, i32 10
  %56 = load i32, ptr %5, align 4
  %57 = and i32 511, %56
  %58 = zext i32 %57 to i64
  %59 = call noundef nonnull align 8 dereferenceable(8) ptr @_ZN10VlUnpackedImLm512EEixEm(ptr noundef nonnull align 8 dereferenceable(4096) %55, i64 noundef %58)
  store i64 0, ptr %59, align 8
  %60 = load i32, ptr %5, align 4
  %61 = add i32 1, %60
  store i32 %61, ptr %5, align 4
  br label %48, !llvm.loop !8

62:                                               ; preds = %48
  store i32 0, ptr %9, align 4
  br label %63

63:                                               ; preds = %66, %62
  %64 = load i32, ptr %9, align 4
  %65 = icmp ule i32 %64, 63
  br i1 %65, label %66, label %75

66:                                               ; preds = %63
  %67 = load ptr, ptr %2, align 8
  %68 = getelementptr inbounds %class.Vmycpu_top___024root, ptr %67, i32 0, i32 7
  %69 = getelementptr inbounds %struct.anon.8, ptr %68, i32 0, i32 11
  %70 = load i32, ptr %9, align 4
  %71 = zext i32 %70 to i64
  %72 = call noundef nonnull align 4 dereferenceable(4) ptr @_ZN10VlUnpackedIjLm64EEixEm(ptr noundef nonnull align 4 dereferenceable(256) %69, i64 noundef %71)
  store i32 0, ptr %72, align 4
  %73 = load i32, ptr %9, align 4
  %74 = add i32 1, %73
  store i32 %74, ptr %9, align 4
  br label %63, !llvm.loop !9

75:                                               ; preds = %63
  store i32 0, ptr %6, align 4
  br label %76

76:                                               ; preds = %80, %75
  %77 = load i32, ptr %6, align 4
  %78 = call noundef i32 @_ZL10VL_GTS_IIIijj(i32 noundef 32, i32 noundef 1024, i32 noundef %77)
  %79 = icmp ne i32 %78, 0
  br i1 %79, label %80, label %90

80:                                               ; preds = %76
  %81 = load ptr, ptr %2, align 8
  %82 = getelementptr inbounds %class.Vmycpu_top___024root, ptr %81, i32 0, i32 7
  %83 = getelementptr inbounds %struct.anon.8, ptr %82, i32 0, i32 22
  %84 = load i32, ptr %6, align 4
  %85 = and i32 1023, %84
  %86 = zext i32 %85 to i64
  %87 = call noundef nonnull align 4 dereferenceable(4) ptr @_ZN10VlUnpackedIjLm1024EEixEm(ptr noundef nonnull align 4 dereferenceable(4096) %83, i64 noundef %86)
  store i32 0, ptr %87, align 4
  %88 = load i32, ptr %6, align 4
  %89 = add i32 1, %88
  store i32 %89, ptr %6, align 4
  br label %76, !llvm.loop !10

90:                                               ; preds = %76
  store i32 0, ptr %10, align 4
  br label %91

91:                                               ; preds = %94, %90
  %92 = load i32, ptr %10, align 4
  %93 = icmp ule i32 %92, 63
  br i1 %93, label %94, label %103

94:                                               ; preds = %91
  %95 = load ptr, ptr %2, align 8
  %96 = getelementptr inbounds %class.Vmycpu_top___024root, ptr %95, i32 0, i32 7
  %97 = getelementptr inbounds %struct.anon.8, ptr %96, i32 0, i32 23
  %98 = load i32, ptr %10, align 4
  %99 = zext i32 %98 to i64
  %100 = call noundef nonnull align 4 dereferenceable(4) ptr @_ZN10VlUnpackedIjLm64EEixEm(ptr noundef nonnull align 4 dereferenceable(256) %97, i64 noundef %99)
  store i32 0, ptr %100, align 4
  %101 = load i32, ptr %10, align 4
  %102 = add i32 1, %101
  store i32 %102, ptr %10, align 4
  br label %91, !llvm.loop !11

103:                                              ; preds = %91
  store i32 0, ptr %7, align 4
  br label %104

104:                                              ; preds = %108, %103
  %105 = load i32, ptr %7, align 4
  %106 = call noundef i32 @_ZL10VL_GTS_IIIijj(i32 noundef 32, i32 noundef 1024, i32 noundef %105)
  %107 = icmp ne i32 %106, 0
  br i1 %107, label %108, label %118

108:                                              ; preds = %104
  %109 = load ptr, ptr %2, align 8
  %110 = getelementptr inbounds %class.Vmycpu_top___024root, ptr %109, i32 0, i32 7
  %111 = getelementptr inbounds %struct.anon.8, ptr %110, i32 0, i32 24
  %112 = load i32, ptr %7, align 4
  %113 = and i32 1023, %112
  %114 = zext i32 %113 to i64
  %115 = call noundef nonnull align 4 dereferenceable(4) ptr @_ZN10VlUnpackedIjLm1024EEixEm(ptr noundef nonnull align 4 dereferenceable(4096) %111, i64 noundef %114)
  store i32 0, ptr %115, align 4
  %116 = load i32, ptr %7, align 4
  %117 = add i32 1, %116
  store i32 %117, ptr %7, align 4
  br label %104, !llvm.loop !12

118:                                              ; preds = %104
  store i32 0, ptr %11, align 4
  br label %119

119:                                              ; preds = %122, %118
  %120 = load i32, ptr %11, align 4
  %121 = icmp ule i32 %120, 63
  br i1 %121, label %122, label %131

122:                                              ; preds = %119
  %123 = load ptr, ptr %2, align 8
  %124 = getelementptr inbounds %class.Vmycpu_top___024root, ptr %123, i32 0, i32 7
  %125 = getelementptr inbounds %struct.anon.8, ptr %124, i32 0, i32 25
  %126 = load i32, ptr %11, align 4
  %127 = zext i32 %126 to i64
  %128 = call noundef nonnull align 4 dereferenceable(4) ptr @_ZN10VlUnpackedIjLm64EEixEm(ptr noundef nonnull align 4 dereferenceable(256) %125, i64 noundef %127)
  store i32 0, ptr %128, align 4
  %129 = load i32, ptr %11, align 4
  %130 = add i32 1, %129
  store i32 %130, ptr %11, align 4
  br label %119, !llvm.loop !13

131:                                              ; preds = %119
  %132 = load ptr, ptr %2, align 8
  %133 = getelementptr inbounds %class.Vmycpu_top___024root, ptr %132, i32 0, i32 1
  %134 = getelementptr inbounds %struct.anon, ptr %133, i32 0, i32 17
  store i8 0, ptr %134, align 1
  %135 = load ptr, ptr %2, align 8
  %136 = getelementptr inbounds %class.Vmycpu_top___024root, ptr %135, i32 0, i32 1
  %137 = getelementptr inbounds %struct.anon, ptr %136, i32 0, i32 20
  store i8 1, ptr %137, align 4
  %138 = load ptr, ptr %2, align 8
  %139 = getelementptr inbounds %class.Vmycpu_top___024root, ptr %138, i32 0, i32 1
  %140 = getelementptr inbounds %struct.anon, ptr %139, i32 0, i32 21
  store i8 0, ptr %140, align 1
  %141 = load ptr, ptr %2, align 8
  %142 = getelementptr inbounds %class.Vmycpu_top___024root, ptr %141, i32 0, i32 1
  %143 = getelementptr inbounds %struct.anon, ptr %142, i32 0, i32 22
  store i8 0, ptr %143, align 2
  %144 = load ptr, ptr %2, align 8
  %145 = getelementptr inbounds %class.Vmycpu_top___024root, ptr %144, i32 0, i32 1
  %146 = getelementptr inbounds %struct.anon, ptr %145, i32 0, i32 23
  store i8 0, ptr %146, align 1
  %147 = load ptr, ptr %2, align 8
  %148 = getelementptr inbounds %class.Vmycpu_top___024root, ptr %147, i32 0, i32 1
  %149 = getelementptr inbounds %struct.anon, ptr %148, i32 0, i32 26
  store i8 0, ptr %149, align 2
  %150 = load ptr, ptr %2, align 8
  %151 = getelementptr inbounds %class.Vmycpu_top___024root, ptr %150, i32 0, i32 1
  %152 = getelementptr inbounds %struct.anon, ptr %151, i32 0, i32 6
  store i8 1, ptr %152, align 2
  %153 = load ptr, ptr %2, align 8
  %154 = getelementptr inbounds %class.Vmycpu_top___024root, ptr %153, i32 0, i32 1
  %155 = getelementptr inbounds %struct.anon, ptr %154, i32 0, i32 7
  store i8 0, ptr %155, align 1
  %156 = load ptr, ptr %2, align 8
  %157 = getelementptr inbounds %class.Vmycpu_top___024root, ptr %156, i32 0, i32 1
  %158 = getelementptr inbounds %struct.anon, ptr %157, i32 0, i32 8
  store i8 0, ptr %158, align 8
  %159 = load ptr, ptr %2, align 8
  %160 = getelementptr inbounds %class.Vmycpu_top___024root, ptr %159, i32 0, i32 1
  %161 = getelementptr inbounds %struct.anon, ptr %160, i32 0, i32 9
  store i8 0, ptr %161, align 1
  ret void
}