; Function Attrs: cold mustprogress nofree norecurse nosync nounwind memory(argmem: write) uwtable
define dso_local void @_Z40Vmycpu_top___024root___eval_initial__TOPP20Vmycpu_top___024root(ptr nocapture noundef writeonly %0) local_unnamed_addr #3 {
  %2 = getelementptr inbounds i8, ptr %0, i64 42
  store i8 1, ptr %2, align 2
  %3 = getelementptr inbounds i8, ptr %0, i64 1568
  br label %6

.preheader58:                                     ; preds = %6
  %4 = getelementptr inbounds i8, ptr %0, i64 5664
  tail call void @llvm.memset.p0.i64(ptr noundef nonnull align 4 dereferenceable(256) %4, i8 0, i64 256, i1 false)
  %5 = getelementptr inbounds i8, ptr %0, i64 5920
  br label %18

6:                                                ; preds = %1, %6
  %.04959 = phi i32 [ 0, %1 ], [ %10, %6 ]
  %7 = and i32 %.04959, 511
  %8 = zext nneg i32 %7 to i64
  %9 = getelementptr inbounds [512 x i64], ptr %3, i64 0, i64 %8
  store i64 0, ptr %9, align 8
  %10 = add i32 %.04959, 1
  %11 = zext i32 %10 to i64
  %12 = and i64 %11, 2147483648
  %13 = sub nsw i64 0, %12
  %14 = or i64 %13, %11
  %15 = icmp sgt i64 %14, 511
  br i1 %15, label %.preheader58, label %6, !llvm.loop !5

.preheader56:                                     ; preds = %18
  %16 = getelementptr inbounds i8, ptr %0, i64 10016
  tail call void @llvm.memset.p0.i64(ptr noundef nonnull align 4 dereferenceable(256) %16, i8 0, i64 256, i1 false)
  %17 = getelementptr inbounds i8, ptr %0, i64 10488
  br label %30

18:                                               ; preds = %.preheader58, %18
  %.04861 = phi i32 [ 0, %.preheader58 ], [ %22, %18 ]
  %19 = and i32 %.04861, 511
  %20 = zext nneg i32 %19 to i64
  %21 = getelementptr inbounds [512 x i64], ptr %5, i64 0, i64 %20
  store i64 0, ptr %21, align 8
  %22 = add i32 %.04861, 1
  %23 = zext i32 %22 to i64
  %24 = and i64 %23, 2147483648
  %25 = sub nsw i64 0, %24
  %26 = or i64 %25, %23
  %27 = icmp sgt i64 %26, 511
  br i1 %27, label %.preheader56, label %18, !llvm.loop !7

.preheader54:                                     ; preds = %30
  %28 = getelementptr inbounds i8, ptr %0, i64 14584
  tail call void @llvm.memset.p0.i64(ptr noundef nonnull align 4 dereferenceable(256) %28, i8 0, i64 256, i1 false)
  %29 = getelementptr inbounds i8, ptr %0, i64 14840
  br label %45

30:                                               ; preds = %.preheader56, %30
  %.04763 = phi i32 [ 0, %.preheader56 ], [ %34, %30 ]
  %31 = and i32 %.04763, 1023
  %32 = zext nneg i32 %31 to i64
  %33 = getelementptr inbounds [1024 x i32], ptr %17, i64 0, i64 %32
  store i32 0, ptr %33, align 4
  %34 = add i32 %.04763, 1
  %35 = zext i32 %34 to i64
  %36 = and i64 %35, 2147483648
  %37 = sub nsw i64 0, %36
  %38 = or i64 %37, %35
  %39 = icmp sgt i64 %38, 1023
  br i1 %39, label %.preheader54, label %30, !llvm.loop !8

.preheader:                                       ; preds = %45
  %40 = getelementptr inbounds i8, ptr %0, i64 18936
  tail call void @llvm.memset.p0.i64(ptr noundef nonnull align 4 dereferenceable(256) %40, i8 0, i64 256, i1 false)
  %41 = getelementptr inbounds i8, ptr %0, i64 25
  store i8 0, ptr %41, align 1
  %42 = getelementptr inbounds i8, ptr %0, i64 28
  store <4 x i8> <i8 1, i8 0, i8 0, i8 0>, ptr %42, align 4
  %43 = getelementptr inbounds i8, ptr %0, i64 34
  store i8 0, ptr %43, align 2
  %44 = getelementptr inbounds i8, ptr %0, i64 14
  store <4 x i8> <i8 1, i8 0, i8 0, i8 0>, ptr %44, align 2
  ret void

45:                                               ; preds = %.preheader54, %45
  %.04665 = phi i32 [ 0, %.preheader54 ], [ %49, %45 ]
  %46 = and i32 %.04665, 1023
  %47 = zext nneg i32 %46 to i64
  %48 = getelementptr inbounds [1024 x i32], ptr %29, i64 0, i64 %47
  store i32 0, ptr %48, align 4
  %49 = add i32 %.04665, 1
  %50 = zext i32 %49 to i64
  %51 = and i64 %50, 2147483648
  %52 = sub nsw i64 0, %51
  %53 = or i64 %52, %50
  %54 = icmp sgt i64 %53, 1023
  br i1 %54, label %.preheader, label %45, !llvm.loop !9
}